; Function Attrs: mustprogress null_pointer_is_valid sspstrong uwtable
define void @_ZN23LBMLBTRUTransportDialog18resetSourcesDetailEv(ptr noundef align 8 captures(none) dereferenceable_or_null(112) %0) local_unnamed_addr #0 align 2 personality ptr @__gxx_personality_v0 {
  %2 = alloca %class.QString, align 8
  %3 = getelementptr inbounds nuw i8, ptr %0, i64 40
  br label %4

4:                                                ; preds = %4, %1
  %5 = load ptr, ptr %3, align 8
  %6 = getelementptr inbounds nuw i8, ptr %5, i64 488
  %7 = load ptr, ptr %6, align 8
  %8 = tail call noundef ptr @_ZN11QTreeWidget16takeTopLevelItemEi(ptr noundef align 8 dereferenceable_or_null(40) %7, i32 noundef 0)
  %.not = icmp eq ptr %8, null
  br i1 %.not, label %.preheader17, label %4, !llvm.loop !106

.preheader17:                                     ; preds = %4, %.preheader17
  %9 = load ptr, ptr %3, align 8
  %10 = getelementptr inbounds nuw i8, ptr %9, i64 536
  %11 = load ptr, ptr %10, align 8
  %12 = tail call noundef ptr @_ZN11QTreeWidget16takeTopLevelItemEi(ptr noundef align 8 dereferenceable_or_null(40) %11, i32 noundef 0)
  %.not2 = icmp eq ptr %12, null
  br i1 %.not2, label %.preheader, label %.preheader17, !llvm.loop !107

.preheader:                                       ; preds = %.preheader17, %.preheader
  %13 = load ptr, ptr %3, align 8
  %14 = getelementptr inbounds nuw i8, ptr %13, i64 512
  %15 = load ptr, ptr %14, align 8
  %16 = tail call noundef ptr @_ZN11QTreeWidget16takeTopLevelItemEi(ptr noundef align 8 dereferenceable_or_null(40) %15, i32 noundef 0)
  %.not3 = icmp eq ptr %16, null
  br i1 %.not3, label %17, label %.preheader, !llvm.loop !108

17:                                               ; preds = %.preheader
  %18 = load ptr, ptr %3, align 8
  %19 = getelementptr inbounds nuw i8, ptr %18, i64 448
  %20 = load ptr, ptr %19, align 8
  call void @llvm.lifetime.start.p0(i64 24, ptr nonnull %2) #19
  store ptr null, ptr %2, align 8
  %21 = getelementptr inbounds nuw i8, ptr %2, i64 8
  store ptr @.str, ptr %21, align 8
  %22 = getelementptr inbounds nuw i8, ptr %2, i64 16
  store i64 1, ptr %22, align 8
  invoke void @_ZN6QLabel7setTextERK7QString(ptr noundef align 8 dereferenceable_or_null(40) %20, ptr noundef nonnull align 8 dereferenceable(24) %2)
          to label %23 unwind label %29

23:                                               ; preds = %17
  %24 = load ptr, ptr %2, align 8
  %.not.i.i.i = icmp eq ptr %24, null
  br i1 %.not.i.i.i, label %_ZN17QArrayDataPointerIDsED2Ev.exit, label %_ZN17QArrayDataPointerIDsE5derefEv.exit.i.i

_ZN17QArrayDataPointerIDsE5derefEv.exit.i.i:      ; preds = %23
  %25 = atomicrmw sub ptr %24, i32 1 seq_cst, align 4
  %.not.i.i = icmp eq i32 %25, 1
  br i1 %.not.i.i, label %26, label %_ZN17QArrayDataPointerIDsED2Ev.exit

26:                                               ; preds = %_ZN17QArrayDataPointerIDsE5derefEv.exit.i.i
  %27 = load ptr, ptr %2, align 8
  call void @_ZN10QArrayData10deallocateEPS_xx(ptr noundef %27, i64 noundef 2, i64 noundef 8) #19
  br label %_ZN17QArrayDataPointerIDsED2Ev.exit

_ZN17QArrayDataPointerIDsED2Ev.exit:              ; preds = %26, %_ZN17QArrayDataPointerIDsE5derefEv.exit.i.i, %23
  call void @llvm.lifetime.end.p0(i64 24, ptr nonnull %2) #19
  %28 = getelementptr inbounds nuw i8, ptr %0, i64 64
  store ptr null, ptr %28, align 8
  ret void

29:                                               ; preds = %17
  %30 = landingpad { ptr, i32 }
          cleanup
  %31 = load ptr, ptr %2, align 8
  %.not.i.i.i5 = icmp eq ptr %31, null
  br i1 %.not.i.i.i5, label %_ZN17QArrayDataPointerIDsED2Ev.exit12, label %_ZN17QArrayDataPointerIDsE5derefEv.exit.i.i6

_ZN17QArrayDataPointerIDsE5derefEv.exit.i.i6:     ; preds = %29
  %32 = atomicrmw sub ptr %31, i32 1 seq_cst, align 4
  %.not.i.i7 = icmp eq i32 %32, 1
  br i1 %.not.i.i7, label %33, label %_ZN17QArrayDataPointerIDsED2Ev.exit12

33:                                               ; preds = %_ZN17QArrayDataPointerIDsE5derefEv.exit.i.i6
  %34 = load ptr, ptr %2, align 8
  call void @_ZN10QArrayData10deallocateEPS_xx(ptr noundef %34, i64 noundef 2, i64 noundef 8) #19
  br label %_ZN17QArrayDataPointerIDsED2Ev.exit12

_ZN17QArrayDataPointerIDsED2Ev.exit12:            ; preds = %33, %_ZN17QArrayDataPointerIDsE5derefEv.exit.i.i6, %29
  call void @llvm.lifetime.end.p0(i64 24, ptr nonnull %2) #19
  resume { ptr, i32 } %30
}